target datalayout = "e-m:e-p270:32:32-p271:32:32-p272:64:64-i64:64-i128:128-f80:128-n8:16:32:64-S128"
target triple = "x86_64-pc-linux-gnu"

%"class.OpenImageIO::v3_1_0::spin_mutex" = type { %"struct.std::atomic_flag" }
%"struct.std::atomic_flag" = type { %"struct.std::__atomic_flag_base" }
%"struct.std::__atomic_flag_base" = type { i8 }
%"struct.std::atomic" = type { %"struct.std::__atomic_base" }
%"struct.std::__atomic_base" = type { i32 }
%"class.OpenImageIO::v3_1_0::spin_mutex::lock_guard" = type { ptr }
%"class.OpenImageIO::v3_1_0::atomic_backoff" = type { i32, i32 }

@_ZN11OpenImageIO6v3_1_0L13handler_mutexE = internal global %"class.OpenImageIO::v3_1_0::spin_mutex" zeroinitializer, align 1
@_ZN11OpenImageIO6v3_1_0L11handler_setE = internal global %"struct.std::atomic" zeroinitializer, align 4

; Function Attrs: inlinehint mustprogress nounwind uwtable
define internal noundef i32 @_ZL15__gthread_yieldv() #4 {
  %1 = call i32 @sched_yield() #3
  ret i32 %1
}

; Function Attrs: noinline noreturn nounwind uwtable
define linkonce_odr hidden void @__clang_call_terminate(ptr noundef %0) #10 comdat {
  %2 = call ptr @__cxa_begin_catch(ptr %0) #3
  call void @_ZSt9terminatev() #29
  unreachable
}

; Function Attrs: inlinehint mustprogress nounwind uwtable
define linkonce_odr void @_ZNSt11this_thread5yieldEv() #4 comdat personality ptr @__gxx_personality_v0 {
  %1 = invoke noundef i32 @_ZL15__gthread_yieldv()
          to label %2 unwind label %3

2:                                                ; preds = %0
  ret void

3:                                                ; preds = %0
  %4 = landingpad { ptr, i32 }
          catch ptr null
  %5 = extractvalue { ptr, i32 } %4, 0
  call void @__clang_call_terminate(ptr %5) #29
  unreachable
}

; Function Attrs: inlinehint mustprogress nounwind uwtable
define linkonce_odr hidden void @_ZN11OpenImageIO6v3_1_05pauseEi(i32 noundef %0) #4 comdat {
  %2 = alloca i32, align 4
  %3 = alloca i32, align 4
  store i32 %0, ptr %2, align 4, !tbaa !22
  call void @llvm.lifetime.start.p0(i64 4, ptr %3) #3
  store i32 0, ptr %3, align 4, !tbaa !22
  br label %4

4:                                                ; preds = %10, %1
  %5 = load i32, ptr %3, align 4, !tbaa !22
  %6 = load i32, ptr %2, align 4, !tbaa !22
  %7 = icmp slt i32 %5, %6
  br i1 %7, label %9, label %8

8:                                                ; preds = %4
  call void @llvm.lifetime.end.p0(i64 4, ptr %3) #3
  br label %13

9:                                                ; preds = %4
  call void asm sideeffect "pause;", "~{dirflag},~{fpsr},~{flags}"() #3, !srcloc !366
  br label %10

10:                                               ; preds = %9
  %11 = load i32, ptr %3, align 4, !tbaa !22
  %12 = add nsw i32 %11, 1
  store i32 %12, ptr %3, align 4, !tbaa !22
  br label %4, !llvm.loop !367

13:                                               ; preds = %8
  ret void
}

; Function Attrs: alwaysinline mustprogress nounwind uwtable
define linkonce_odr noundef zeroext i1 @_ZNSt11atomic_flag12test_and_setESt12memory_order(ptr noundef nonnull align 1 dereferenceable(1) %0, i32 noundef %1) #12 comdat align 2 {
  %3 = alloca ptr, align 8
  %4 = alloca i32, align 4
  %5 = alloca i8, align 1
  store ptr %0, ptr %3, align 8, !tbaa !353
  store i32 %1, ptr %4, align 4, !tbaa !364
  %6 = load ptr, ptr %3, align 8
  %7 = getelementptr inbounds nuw %"struct.std::__atomic_flag_base", ptr %6, i32 0, i32 0
  %8 = load i32, ptr %4, align 4, !tbaa !364
  switch i32 %8, label %9 [
    i32 1, label %12
    i32 2, label %12
    i32 3, label %15
    i32 4, label %18
    i32 5, label %21
  ]

9:                                                ; preds = %2
  %10 = atomicrmw xchg ptr %7, i8 1 monotonic, align 1
  %11 = icmp ne i8 %10, 0
  store i1 %11, ptr %5, align 1
  br label %24

12:                                               ; preds = %2, %2
  %13 = atomicrmw xchg ptr %7, i8 1 acquire, align 1
  %14 = icmp ne i8 %13, 0
  store i1 %14, ptr %5, align 1
  br label %24

15:                                               ; preds = %2
  %16 = atomicrmw xchg ptr %7, i8 1 release, align 1
  %17 = icmp ne i8 %16, 0
  store i1 %17, ptr %5, align 1
  br label %24

18:                                               ; preds = %2
  %19 = atomicrmw xchg ptr %7, i8 1 acq_rel, align 1
  %20 = icmp ne i8 %19, 0
  store i1 %20, ptr %5, align 1
  br label %24

21:                                               ; preds = %2
  %22 = atomicrmw xchg ptr %7, i8 1 seq_cst, align 1
  %23 = icmp ne i8 %22, 0
  store i1 %23, ptr %5, align 1
  br label %24

24:                                               ; preds = %21, %18, %15, %12, %9
  %25 = load i8, ptr %5, align 1, !tbaa !118, !range !119, !noundef !120
  %26 = trunc i8 %25 to i1
  ret i1 %26
}

; Function Attrs: alwaysinline mustprogress nounwind uwtable
define linkonce_odr void @_ZNSt11atomic_flag5clearESt12memory_order(ptr noundef nonnull align 1 dereferenceable(1) %0, i32 noundef %1) #12 comdat align 2 personality ptr @__gxx_personality_v0 {
  %3 = alloca ptr, align 8
  %4 = alloca i32, align 4
  %5 = alloca i32, align 4
  store ptr %0, ptr %3, align 8, !tbaa !353
  store i32 %1, ptr %4, align 4, !tbaa !364
  %6 = load ptr, ptr %3, align 8
  call void @llvm.lifetime.start.p0(i64 4, ptr %5) #3
  %7 = load i32, ptr %4, align 4, !tbaa !364
  %8 = invoke noundef i32 @_ZStanSt12memory_orderSt23__memory_order_modifier(i32 noundef %7, i32 noundef 65535)
          to label %9 unwind label %25

9:                                                ; preds = %2
  store i32 %8, ptr %5, align 4, !tbaa !364
  br label %10

10:                                               ; preds = %9
  br label %11

11:                                               ; preds = %10
  br label %12

12:                                               ; preds = %11
  br label %13

13:                                               ; preds = %12
  br label %14

14:                                               ; preds = %13
  br label %15

15:                                               ; preds = %14
  br label %16

16:                                               ; preds = %15
  br label %17

17:                                               ; preds = %16
  br label %18

18:                                               ; preds = %17
  %19 = getelementptr inbounds nuw %"struct.std::__atomic_flag_base", ptr %6, i32 0, i32 0
  %20 = load i32, ptr %4, align 4, !tbaa !364
  switch i32 %20, label %21 [
    i32 3, label %22
    i32 5, label %23
  ]

21:                                               ; preds = %18
  store atomic i8 0, ptr %19 monotonic, align 1
  br label %24

22:                                               ; preds = %18
  store atomic i8 0, ptr %19 release, align 1
  br label %24

23:                                               ; preds = %18
  store atomic i8 0, ptr %19 seq_cst, align 1
  br label %24

24:                                               ; preds = %23, %22, %21
  call void @llvm.lifetime.end.p0(i64 4, ptr %5) #3
  ret void

25:                                               ; preds = %2
  %26 = landingpad { ptr, i32 }
          catch ptr null
  %27 = extractvalue { ptr, i32 } %26, 0
  call void @__clang_call_terminate(ptr %27) #29
  unreachable
}

; Function Attrs: mustprogress nounwind uwtable
define linkonce_odr hidden void @_ZN11OpenImageIO6v3_1_014atomic_backoffclEv(ptr noundef nonnull align 4 dereferenceable(8) %0) #7 comdat align 2 {
  %2 = alloca ptr, align 8
  store ptr %0, ptr %2, align 8, !tbaa !359
  %3 = load ptr, ptr %2, align 8
  %4 = getelementptr inbounds nuw %"class.OpenImageIO::v3_1_0::atomic_backoff", ptr %3, i32 0, i32 0
  %5 = load i32, ptr %4, align 4, !tbaa !361
  %6 = getelementptr inbounds nuw %"class.OpenImageIO::v3_1_0::atomic_backoff", ptr %3, i32 0, i32 1
  %7 = load i32, ptr %6, align 4, !tbaa !363
  %8 = icmp sle i32 %5, %7
  br i1 %8, label %9, label %15

9:                                                ; preds = %1
  %10 = getelementptr inbounds nuw %"class.OpenImageIO::v3_1_0::atomic_backoff", ptr %3, i32 0, i32 0
  %11 = load i32, ptr %10, align 4, !tbaa !361
  call void @_ZN11OpenImageIO6v3_1_05pauseEi(i32 noundef %11) #3
  %12 = getelementptr inbounds nuw %"class.OpenImageIO::v3_1_0::atomic_backoff", ptr %3, i32 0, i32 0
  %13 = load i32, ptr %12, align 4, !tbaa !361
  %14 = mul nsw i32 %13, 2
  store i32 %14, ptr %12, align 4, !tbaa !361
  br label %16

15:                                               ; preds = %1
  call void @_ZNSt11this_thread5yieldEv() #3
  br label %16

16:                                               ; preds = %15, %9
  ret void
}

; Function Attrs: mustprogress nounwind uwtable
define linkonce_odr hidden noundef zeroext i1 @_ZN11OpenImageIO6v3_1_010spin_mutex8try_lockEv(ptr noundef nonnull align 1 dereferenceable(1) %0) #7 comdat align 2 {
  %2 = alloca ptr, align 8
  store ptr %0, ptr %2, align 8, !tbaa !10
  %3 = load ptr, ptr %2, align 8
  %4 = getelementptr inbounds nuw %"class.OpenImageIO::v3_1_0::spin_mutex", ptr %3, i32 0, i32 0
  %5 = call noundef zeroext i1 @_ZNSt11atomic_flag12test_and_setESt12memory_order(ptr noundef nonnull align 1 dereferenceable(1) %4, i32 noundef 2) #3
  %6 = xor i1 %5, true
  ret i1 %6
}

; Function Attrs: mustprogress nounwind uwtable
define linkonce_odr hidden void @_ZN11OpenImageIO6v3_1_014atomic_backoffC2Ei(ptr noundef nonnull align 4 dereferenceable(8) %0, i32 noundef %1) unnamed_addr #7 comdat align 2 {
  %3 = alloca ptr, align 8
  %4 = alloca i32, align 4
  store ptr %0, ptr %3, align 8, !tbaa !359
  store i32 %1, ptr %4, align 4, !tbaa !22
  %5 = load ptr, ptr %3, align 8
  %6 = getelementptr inbounds nuw %"class.OpenImageIO::v3_1_0::atomic_backoff", ptr %5, i32 0, i32 0
  store i32 1, ptr %6, align 4, !tbaa !361
  %7 = getelementptr inbounds nuw %"class.OpenImageIO::v3_1_0::atomic_backoff", ptr %5, i32 0, i32 1
  %8 = load i32, ptr %4, align 4, !tbaa !22
  store i32 %8, ptr %7, align 4, !tbaa !363
  ret void
}

; Function Attrs: mustprogress nounwind uwtable
define linkonce_odr noundef i32 @_ZStanSt12memory_orderSt23__memory_order_modifier(i32 noundef %0, i32 noundef %1) #7 comdat {
  %3 = alloca i32, align 4
  %4 = alloca i32, align 4
  store i32 %0, ptr %3, align 4, !tbaa !364
  store i32 %1, ptr %4, align 4, !tbaa !368
  %5 = load i32, ptr %3, align 4, !tbaa !364
  %6 = load i32, ptr %4, align 4, !tbaa !368
  %7 = and i32 %5, %6
  ret i32 %7
}

; Function Attrs: mustprogress nounwind uwtable
define linkonce_odr hidden void @_ZN11OpenImageIO6v3_1_010spin_mutex6unlockEv(ptr noundef nonnull align 1 dereferenceable(1) %0) #7 comdat align 2 {
  %2 = alloca ptr, align 8
  store ptr %0, ptr %2, align 8, !tbaa !10
  %3 = load ptr, ptr %2, align 8
  %4 = getelementptr inbounds nuw %"class.OpenImageIO::v3_1_0::spin_mutex", ptr %3, i32 0, i32 0
  call void @_ZNSt11atomic_flag5clearESt12memory_order(ptr noundef nonnull align 1 dereferenceable(1) %4, i32 noundef 3) #3
  ret void
}

; Function Attrs: alwaysinline mustprogress nounwind uwtable
define linkonce_odr void @_ZNSt13__atomic_baseIiE5storeEiSt12memory_order(ptr noundef nonnull align 4 dereferenceable(4) %0, i32 noundef %1, i32 noundef %2) #12 comdat align 2 {
  %4 = alloca ptr, align 8
  %5 = alloca i32, align 4
  %6 = alloca i32, align 4
  %7 = alloca i32, align 4
  %8 = alloca i32, align 4
  store ptr %0, ptr %4, align 8, !tbaa !12
  store i32 %1, ptr %5, align 4, !tbaa !22
  store i32 %2, ptr %6, align 4, !tbaa !364
  %9 = load ptr, ptr %4, align 8
  call void @llvm.lifetime.start.p0(i64 4, ptr %7) #3
  %10 = load i32, ptr %6, align 4, !tbaa !364
  %11 = call noundef i32 @_ZStanSt12memory_orderSt23__memory_order_modifier(i32 noundef %10, i32 noundef 65535)
  store i32 %11, ptr %7, align 4, !tbaa !364
  br label %12

12:                                               ; preds = %3
  br label %13

13:                                               ; preds = %12
  br label %14

14:                                               ; preds = %13
  br label %15

15:                                               ; preds = %14
  br label %16

16:                                               ; preds = %15
  br label %17

17:                                               ; preds = %16
  br label %18

18:                                               ; preds = %17
  br label %19

19:                                               ; preds = %18
  br label %20

20:                                               ; preds = %19
  %21 = getelementptr inbounds nuw %"struct.std::__atomic_base", ptr %9, i32 0, i32 0
  %22 = load i32, ptr %6, align 4, !tbaa !364
  %23 = load i32, ptr %5, align 4, !tbaa !22
  store i32 %23, ptr %8, align 4, !tbaa !22
  switch i32 %22, label %24 [
    i32 3, label %26
    i32 5, label %28
  ]

24:                                               ; preds = %20
  %25 = load i32, ptr %8, align 4
  store atomic i32 %25, ptr %21 monotonic, align 4
  br label %30

26:                                               ; preds = %20
  %27 = load i32, ptr %8, align 4
  store atomic i32 %27, ptr %21 release, align 4
  br label %30

28:                                               ; preds = %20
  %29 = load i32, ptr %8, align 4
  store atomic i32 %29, ptr %21 seq_cst, align 4
  br label %30

30:                                               ; preds = %28, %26, %24
  call void @llvm.lifetime.end.p0(i64 4, ptr %7) #3
  ret void
}

; Function Attrs: mustprogress nounwind uwtable
define linkonce_odr hidden void @_ZN11OpenImageIO6v3_1_010spin_mutex4lockEv(ptr noundef nonnull align 1 dereferenceable(1) %0) #7 comdat align 2 {
  %2 = alloca ptr, align 8
  %3 = alloca %"class.OpenImageIO::v3_1_0::atomic_backoff", align 4
  store ptr %0, ptr %2, align 8, !tbaa !10
  %4 = load ptr, ptr %2, align 8
  call void @llvm.lifetime.start.p0(i64 8, ptr %3) #3
  call void @_ZN11OpenImageIO6v3_1_014atomic_backoffC2Ei(ptr noundef nonnull align 4 dereferenceable(8) %3, i32 noundef 16) #3
  br label %5

5:                                                ; preds = %17, %1
  %6 = call noundef zeroext i1 @_ZN11OpenImageIO6v3_1_010spin_mutex8try_lockEv(ptr noundef nonnull align 1 dereferenceable(1) %4) #3
  %7 = zext i1 %6 to i64
  %8 = call i64 @llvm.expect.i64(i64 %7, i64 0)
  %9 = icmp ne i64 %8, 0
  %10 = xor i1 %9, true
  br i1 %10, label %11, label %18

11:                                               ; preds = %5
  br label %12

12:                                               ; preds = %13, %11
  call void @_ZN11OpenImageIO6v3_1_014atomic_backoffclEv(ptr noundef nonnull align 4 dereferenceable(8) %3) #3
  br label %13

13:                                               ; preds = %12
  %14 = getelementptr inbounds nuw %"class.OpenImageIO::v3_1_0::spin_mutex", ptr %4, i32 0, i32 0
  %15 = load volatile i8, ptr %14, align 1, !tbaa !118, !range !119, !noundef !120
  %16 = trunc i8 %15 to i1
  br i1 %16, label %12, label %17, !llvm.loop !357

17:                                               ; preds = %13
  br label %5, !llvm.loop !358

18:                                               ; preds = %5
  call void @llvm.lifetime.end.p0(i64 8, ptr %3) #3
  ret void
}

; Function Attrs: alwaysinline mustprogress nounwind uwtable
define linkonce_odr noundef i32 @_ZNKSt13__atomic_baseIiE4loadESt12memory_order(ptr noundef nonnull align 4 dereferenceable(4) %0, i32 noundef %1) #12 comdat align 2 {
  %3 = alloca ptr, align 8
  %4 = alloca i32, align 4
  %5 = alloca i32, align 4
  %6 = alloca i32, align 4
  store ptr %0, ptr %3, align 8, !tbaa !12
  store i32 %1, ptr %4, align 4, !tbaa !364
  %7 = load ptr, ptr %3, align 8
  call void @llvm.lifetime.start.p0(i64 4, ptr %5) #3
  %8 = load i32, ptr %4, align 4, !tbaa !364
  %9 = call noundef i32 @_ZStanSt12memory_orderSt23__memory_order_modifier(i32 noundef %8, i32 noundef 65535)
  store i32 %9, ptr %5, align 4, !tbaa !364
  br label %10

10:                                               ; preds = %2
  br label %11

11:                                               ; preds = %10
  br label %12

12:                                               ; preds = %11
  br label %13

13:                                               ; preds = %12
  br label %14

14:                                               ; preds = %13
  br label %15

15:                                               ; preds = %14
  %16 = getelementptr inbounds nuw %"struct.std::__atomic_base", ptr %7, i32 0, i32 0
  %17 = load i32, ptr %4, align 4, !tbaa !364
  switch i32 %17, label %18 [
    i32 1, label %20
    i32 2, label %20
    i32 5, label %22
  ]

18:                                               ; preds = %15
  %19 = load atomic i32, ptr %16 monotonic, align 4
  store i32 %19, ptr %6, align 4
  br label %24

20:                                               ; preds = %15, %15
  %21 = load atomic i32, ptr %16 acquire, align 4
  store i32 %21, ptr %6, align 4
  br label %24

22:                                               ; preds = %15
  %23 = load atomic i32, ptr %16 seq_cst, align 4
  store i32 %23, ptr %6, align 4
  br label %24

24:                                               ; preds = %22, %20, %18
  %25 = load i32, ptr %6, align 4, !tbaa !22
  call void @llvm.lifetime.end.p0(i64 4, ptr %5) #3
  ret i32 %25
}

; Function Attrs: mustprogress nounwind uwtable
define linkonce_odr hidden void @_ZN11OpenImageIO6v3_1_010spin_mutex10lock_guardD2Ev(ptr noundef nonnull align 8 dereferenceable(8) %0) unnamed_addr #7 comdat align 2 {
  %2 = alloca ptr, align 8
  store ptr %0, ptr %2, align 8, !tbaa !14
  %3 = load ptr, ptr %2, align 8
  %4 = getelementptr inbounds nuw %"class.OpenImageIO::v3_1_0::spin_mutex::lock_guard", ptr %3, i32 0, i32 0
  %5 = load ptr, ptr %4, align 8, !tbaa !16
  call void @_ZN11OpenImageIO6v3_1_010spin_mutex6unlockEv(ptr noundef nonnull align 1 dereferenceable(1) %5) #3
  ret void
}

; Function Attrs: mustprogress nounwind uwtable
define linkonce_odr noundef i32 @_ZNSt13__atomic_baseIiEaSEi(ptr noundef nonnull align 4 dereferenceable(4) %0, i32 noundef %1) #7 comdat align 2 {
  %3 = alloca ptr, align 8
  %4 = alloca i32, align 4
  store ptr %0, ptr %3, align 8, !tbaa !12
  store i32 %1, ptr %4, align 4, !tbaa !22
  %5 = load ptr, ptr %3, align 8
  %6 = load i32, ptr %4, align 4, !tbaa !22
  call void @_ZNSt13__atomic_baseIiE5storeEiSt12memory_order(ptr noundef nonnull align 4 dereferenceable(4) %5, i32 noundef %6, i32 noundef 5) #3
  %7 = load i32, ptr %4, align 4, !tbaa !22
  ret i32 %7
}

; Function Attrs: mustprogress nounwind uwtable
define linkonce_odr hidden void @_ZN11OpenImageIO6v3_1_010spin_mutex10lock_guardC2ERS1_(ptr noundef nonnull align 8 dereferenceable(8) %0, ptr noundef nonnull align 1 dereferenceable(1) %1) unnamed_addr #7 comdat align 2 {
  %3 = alloca ptr, align 8
  %4 = alloca ptr, align 8
  store ptr %0, ptr %3, align 8, !tbaa !14
  store ptr %1, ptr %4, align 8, !tbaa !10
  %5 = load ptr, ptr %3, align 8
  %6 = getelementptr inbounds nuw %"class.OpenImageIO::v3_1_0::spin_mutex::lock_guard", ptr %5, i32 0, i32 0
  %7 = load ptr, ptr %4, align 8, !tbaa !10
  store ptr %7, ptr %6, align 8, !tbaa !10
  %8 = getelementptr inbounds nuw %"class.OpenImageIO::v3_1_0::spin_mutex::lock_guard", ptr %5, i32 0, i32 0
  %9 = load ptr, ptr %8, align 8, !tbaa !16
  call void @_ZN11OpenImageIO6v3_1_010spin_mutex4lockEv(ptr noundef nonnull align 1 dereferenceable(1) %9) #3
  ret void
}

; Function Attrs: mustprogress nounwind uwtable
define linkonce_odr noundef i32 @_ZNKSt13__atomic_baseIiEcviEv(ptr noundef nonnull align 4 dereferenceable(4) %0) #7 comdat align 2 {
  %2 = alloca ptr, align 8
  store ptr %0, ptr %2, align 8, !tbaa !12
  %3 = load ptr, ptr %2, align 8
  %4 = call noundef i32 @_ZNKSt13__atomic_baseIiE4loadESt12memory_order(ptr noundef nonnull align 4 dereferenceable(4) %3, i32 noundef 5) #3
  ret i32 %4
}

; Function Attrs: mustprogress uwtable
define hidden void @_ZN11OpenImageIO6v3_1_027oiio_tiff_set_error_handlerEv() #6 personality ptr @__gxx_personality_v0 {
  %1 = alloca %"class.OpenImageIO::v3_1_0::spin_mutex::lock_guard", align 8
  %2 = alloca ptr, align 8
  %3 = alloca i32, align 4
  %4 = call noundef i32 @_ZNKSt13__atomic_baseIiEcviEv(ptr noundef nonnull align 4 dereferenceable(4) @_ZN11OpenImageIO6v3_1_0L11handler_setE) #3
  %5 = icmp ne i32 %4, 0
  br i1 %5, label %20, label %6

6:                                                ; preds = %0
  call void @llvm.lifetime.start.p0(i64 8, ptr %1) #3
  call void @_ZN11OpenImageIO6v3_1_010spin_mutex10lock_guardC2ERS1_(ptr noundef nonnull align 8 dereferenceable(8) %1, ptr noundef nonnull align 1 dereferenceable(1) @_ZN11OpenImageIO6v3_1_0L13handler_mutexE) #3
  %7 = call noundef i32 @_ZNKSt13__atomic_baseIiEcviEv(ptr noundef nonnull align 4 dereferenceable(4) @_ZN11OpenImageIO6v3_1_0L11handler_setE) #3
  %8 = icmp ne i32 %7, 0
  br i1 %8, label %19, label %9

9:                                                ; preds = %6
  %10 = invoke ptr @TIFFSetErrorHandler(ptr noundef @_ZN11OpenImageIO6v3_1_0L16my_error_handlerEPKcS2_P13__va_list_tag)
          to label %11 unwind label %15

11:                                               ; preds = %9
  %12 = invoke ptr @TIFFSetWarningHandler(ptr noundef @_ZN11OpenImageIO6v3_1_0L16my_error_handlerEPKcS2_P13__va_list_tag)
          to label %13 unwind label %15

13:                                               ; preds = %11
  %14 = call noundef i32 @_ZNSt13__atomic_baseIiEaSEi(ptr noundef nonnull align 4 dereferenceable(4) @_ZN11OpenImageIO6v3_1_0L11handler_setE, i32 noundef 1) #3
  br label %19

15:                                               ; preds = %11, %9
  %16 = landingpad { ptr, i32 }
          cleanup
  %17 = extractvalue { ptr, i32 } %16, 0
  store ptr %17, ptr %2, align 8
  %18 = extractvalue { ptr, i32 } %16, 1
  store i32 %18, ptr %3, align 4
  call void @_ZN11OpenImageIO6v3_1_010spin_mutex10lock_guardD2Ev(ptr noundef nonnull align 8 dereferenceable(8) %1) #3
  call void @llvm.lifetime.end.p0(i64 8, ptr %1) #3
  br label %21

19:                                               ; preds = %13, %6
  call void @_ZN11OpenImageIO6v3_1_010spin_mutex10lock_guardD2Ev(ptr noundef nonnull align 8 dereferenceable(8) %1) #3
  call void @llvm.lifetime.end.p0(i64 8, ptr %1) #3
  br label %20

20:                                               ; preds = %19, %0
  ret void

21:                                               ; preds = %15
  %22 = load ptr, ptr %2, align 8
  %23 = load i32, ptr %3, align 4
  %24 = insertvalue { ptr, i32 } poison, ptr %22, 0
  %25 = insertvalue { ptr, i32 } %24, i32 %23, 1
  resume { ptr, i32 } %25
}