; Function Attrs: mustprogress uwtable
define hidden void @_ZN11OpenImageIO6v3_1_027oiio_tiff_set_error_handlerEv() local_unnamed_addr #5 personality ptr @__gxx_personality_v0 {
  %1 = alloca i8, align 1
  %2 = load atomic i32, ptr @_ZN11OpenImageIO6v3_1_0L11handler_setE.0 seq_cst, align 4
  %.not = icmp eq i32 %2, 0
  br i1 %.not, label %3, label %28

3:                                                ; preds = %0
  call void @llvm.lifetime.start.p0(i64 1, ptr nonnull %1)
  %4 = atomicrmw xchg ptr @_ZN11OpenImageIO6v3_1_0L13handler_mutexE, i8 1 acquire, align 1
  %5 = icmp ne i8 %4, 0
  store i1 %5, ptr %1, align 1
  %.0..0..0..0..0..0..0..0..0..0..i.i2.i.i = load i8, ptr %1, align 1, !tbaa !14, !range !16, !noundef !17
  %6 = trunc nuw i8 %.0..0..0..0..0..0..0..0..0..0..i.i2.i.i to i1
  call void @llvm.lifetime.end.p0(i64 1, ptr nonnull %1)
  br i1 %6, label %.preheader.i.i, label %_ZN11OpenImageIO6v3_1_010spin_mutex10lock_guardC2ERS1_.exit

.preheader.i.i:                                   ; preds = %3, %.preheader.i.i.backedge
  %.sroa.0.1.i.i = phi i32 [ %.sroa.0.2.i.i, %.preheader.i.i.backedge ], [ 1, %3 ]
  %.not.i.i.i = icmp sgt i32 %.sroa.0.1.i.i, 16
  br i1 %.not.i.i.i, label %11, label %7

7:                                                ; preds = %.preheader.i.i
  %8 = icmp sgt i32 %.sroa.0.1.i.i, 0
  br i1 %8, label %.lr.ph.i.i.i.i, label %_ZN11OpenImageIO6v3_1_05pauseEi.exit.i.i.i

.lr.ph.i.i.i.i:                                   ; preds = %7, %.lr.ph.i.i.i.i
  %.03.i.i.i.i = phi i32 [ %9, %.lr.ph.i.i.i.i ], [ 0, %7 ]
  tail call void asm sideeffect "pause;", "~{dirflag},~{fpsr},~{flags}"() #7, !srcloc !18
  %9 = add nuw nsw i32 %.03.i.i.i.i, 1
  %exitcond.not.i.i.i.i = icmp eq i32 %9, %.sroa.0.1.i.i
  br i1 %exitcond.not.i.i.i.i, label %_ZN11OpenImageIO6v3_1_05pauseEi.exit.i.i.i, label %.lr.ph.i.i.i.i, !llvm.loop !19

_ZN11OpenImageIO6v3_1_05pauseEi.exit.i.i.i:       ; preds = %.lr.ph.i.i.i.i, %7
  %10 = shl nsw i32 %.sroa.0.1.i.i, 1
  br label %_ZN11OpenImageIO6v3_1_014atomic_backoffclEv.exit.i.i

11:                                               ; preds = %.preheader.i.i
  %12 = tail call noundef i32 @sched_yield() #7
  br label %_ZN11OpenImageIO6v3_1_014atomic_backoffclEv.exit.i.i

_ZN11OpenImageIO6v3_1_014atomic_backoffclEv.exit.i.i: ; preds = %11, %_ZN11OpenImageIO6v3_1_05pauseEi.exit.i.i.i
  %.sroa.0.2.i.i = phi i32 [ %.sroa.0.1.i.i, %11 ], [ %10, %_ZN11OpenImageIO6v3_1_05pauseEi.exit.i.i.i ]
  %13 = load volatile i8, ptr @_ZN11OpenImageIO6v3_1_0L13handler_mutexE, align 1, !tbaa !14, !range !16, !noundef !17
  %14 = trunc nuw i8 %13 to i1
  br i1 %14, label %.preheader.i.i.backedge, label %15

.preheader.i.i.backedge:                          ; preds = %_ZN11OpenImageIO6v3_1_014atomic_backoffclEv.exit.i.i, %15
  br label %.preheader.i.i, !llvm.loop !21

15:                                               ; preds = %_ZN11OpenImageIO6v3_1_014atomic_backoffclEv.exit.i.i
  call void @llvm.lifetime.start.p0(i64 1, ptr nonnull %1)
  %16 = atomicrmw xchg ptr @_ZN11OpenImageIO6v3_1_0L13handler_mutexE, i8 1 acquire, align 1
  %17 = icmp ne i8 %16, 0
  store i1 %17, ptr %1, align 1
  %.0..0..0..0..0..0..0..0..0..0..i.i.i.i = load i8, ptr %1, align 1, !tbaa !14, !range !16, !noundef !17
  %18 = trunc nuw i8 %.0..0..0..0..0..0..0..0..0..0..i.i.i.i to i1
  call void @llvm.lifetime.end.p0(i64 1, ptr nonnull %1)
  br i1 %18, label %.preheader.i.i.backedge, label %_ZN11OpenImageIO6v3_1_010spin_mutex10lock_guardC2ERS1_.exit

_ZN11OpenImageIO6v3_1_010spin_mutex10lock_guardC2ERS1_.exit: ; preds = %15, %3
  %19 = load atomic i32, ptr @_ZN11OpenImageIO6v3_1_0L11handler_setE.0 seq_cst, align 4
  %.not1 = icmp eq i32 %19, 0
  br i1 %.not1, label %20, label %27

20:                                               ; preds = %_ZN11OpenImageIO6v3_1_010spin_mutex10lock_guardC2ERS1_.exit
  %21 = invoke ptr @TIFFSetErrorHandler(ptr noundef nonnull @_ZN11OpenImageIO6v3_1_0L16my_error_handlerEPKcS2_P13__va_list_tag)
          to label %22 unwind label %25

22:                                               ; preds = %20
  %23 = invoke ptr @TIFFSetWarningHandler(ptr noundef nonnull @_ZN11OpenImageIO6v3_1_0L16my_error_handlerEPKcS2_P13__va_list_tag)
          to label %24 unwind label %25

24:                                               ; preds = %22
  store atomic i32 1, ptr @_ZN11OpenImageIO6v3_1_0L11handler_setE.0 seq_cst, align 4
  br label %27

25:                                               ; preds = %22, %20
  %26 = landingpad { ptr, i32 }
          cleanup
  store atomic i8 0, ptr @_ZN11OpenImageIO6v3_1_0L13handler_mutexE release, align 1
  resume { ptr, i32 } %26

27:                                               ; preds = %24, %_ZN11OpenImageIO6v3_1_010spin_mutex10lock_guardC2ERS1_.exit
  store atomic i8 0, ptr @_ZN11OpenImageIO6v3_1_0L13handler_mutexE release, align 1
  br label %28

28:                                               ; preds = %27, %0
  ret void
}